; Function Attrs: mustprogress uwtable
define hidden noundef nonnull align 8 dereferenceable(8) ptr @_ZlsRSoRK10ref_vectorIN10polynomial10polynomialENS1_7managerEE(ptr noundef nonnull returned align 8 dereferenceable(8) %out, ptr nocapture noundef nonnull readonly align 8 dereferenceable(16) %seq) local_unnamed_addr #4 personality ptr @__gxx_personality_v0 {
entry:
  %ref.tmp = alloca %"struct.polynomial::display_var_proc", align 8
  %m_nodes.i = getelementptr inbounds i8, ptr %seq, i64 8
  %0 = load ptr, ptr %m_nodes.i, align 8
  %cmp.i.i = icmp eq ptr %0, null
  br i1 %cmp.i.i, label %for.end, label %_ZNK15ref_vector_coreIN10polynomial10polynomialE19ref_manager_wrapperIS1_NS0_7managerEEE4sizeEv.exit

_ZNK15ref_vector_coreIN10polynomial10polynomialE19ref_manager_wrapperIS1_NS0_7managerEEE4sizeEv.exit: ; preds = %entry
  %arrayidx.i.i = getelementptr inbounds i8, ptr %0, i64 -4
  %1 = load i32, ptr %arrayidx.i.i, align 4
  %cmp10.not = icmp eq i32 %1, 0
  br i1 %cmp10.not, label %for.end, label %for.body.preheader

for.body.preheader:                               ; preds = %_ZNK15ref_vector_coreIN10polynomial10polynomialE19ref_manager_wrapperIS1_NS0_7managerEEE4sizeEv.exit
  %wide.trip.count = zext i32 %1 to i64
  br label %for.body

for.body:                                         ; preds = %for.body.preheader, %for.body
  %indvars.iv = phi i64 [ 0, %for.body.preheader ], [ %indvars.iv.next, %for.body ]
  %2 = load ptr, ptr %seq, align 8
  %3 = load ptr, ptr %m_nodes.i, align 8
  %arrayidx.i.i8 = getelementptr inbounds ptr, ptr %3, i64 %indvars.iv
  %4 = load ptr, ptr %arrayidx.i.i8, align 8
  store ptr getelementptr inbounds ({ [5 x ptr] }, ptr @_ZTVN10polynomial16display_var_procE, i64 0, i32 0, i64 2), ptr %ref.tmp, align 8
  %5 = load ptr, ptr %2, align 8
  %m_manager.i = getelementptr inbounds i8, ptr %5, i64 16
  %call.i9 = call noundef nonnull align 8 dereferenceable(8) ptr @_ZNK10polynomial10polynomial7displayERSoR13mpzzp_managerRKNS_16display_var_procEb(ptr noundef nonnull align 8 dereferenceable(32) %4, ptr noundef nonnull align 8 dereferenceable(8) %out, ptr noundef nonnull align 8 dereferenceable(136) %m_manager.i, ptr noundef nonnull align 8 dereferenceable(8) %ref.tmp, i1 noundef zeroext false)
  %call3 = call noundef nonnull align 8 dereferenceable(8) ptr @_ZStlsISt11char_traitsIcEERSt13basic_ostreamIcT_ES5_PKc(ptr noundef nonnull align 8 dereferenceable(8) %out, ptr noundef nonnull @.str.13)
  %indvars.iv.next = add nuw nsw i64 %indvars.iv, 1
  %exitcond.not = icmp eq i64 %indvars.iv.next, %wide.trip.count
  br i1 %exitcond.not, label %for.end, label %for.body, !llvm.loop !129

for.end:                                          ; preds = %for.body, %entry, %_ZNK15ref_vector_coreIN10polynomial10polynomialE19ref_manager_wrapperIS1_NS0_7managerEEE4sizeEv.exit
  ret ptr %out
}